target datalayout = "e-m:e-p270:32:32-p271:32:32-p272:64:64-i64:64-i128:128-f80:128-n8:16:32:64-S128"
target triple = "x86_64-pc-linux-gnu"

%struct.SlruCtlData = type { ptr, i16, i8, i32, ptr, [64 x i8] }
%struct.MultiXactMember = type { i32, i32 }
%union.LWLockPadded = type { %struct.LWLock, [112 x i8] }
%struct.LWLock = type { i16, %struct.pg_atomic_uint32, %struct.proclist_head }
%struct.pg_atomic_uint32 = type { i32 }
%struct.proclist_head = type { i32, i32 }
%struct.MultiXactStateData = type { i32, i32, i8, i32, i32, i32, i8, i32, i32, i32, i32, i32, %struct.ConditionVariable, [0 x i32] }
%struct.ConditionVariable = type { i8, %struct.proclist_head }
%struct.SlruSharedData = type { i32, ptr, ptr, ptr, ptr, ptr, ptr, ptr, ptr, ptr, i32, %struct.pg_atomic_uint64, i32 }
%struct.pg_atomic_uint64 = type { i64 }

@MultiXactState = internal global ptr null, align 8
@MultiXactOffsetCtlData = internal global %struct.SlruCtlData zeroinitializer, align 8
@MultiXactMemberCtlData = internal global %struct.SlruCtlData zeroinitializer, align 8

; Function Attrs: inlinehint nounwind uwtable
define internal i32 @MXOffsetToFlagsBitShift(i32 noundef %0) #4 {
  %2 = alloca i32, align 4
  %3 = alloca i32, align 4
  %4 = alloca i32, align 4
  store i32 %0, ptr %2, align 4
  call void @llvm.lifetime.start.p0(i64 4, ptr %3) #9
  %5 = load i32, ptr %2, align 4
  %6 = urem i32 %5, 4
  store i32 %6, ptr %3, align 4
  call void @llvm.lifetime.start.p0(i64 4, ptr %4) #9
  %7 = load i32, ptr %3, align 4
  %8 = mul i32 %7, 8
  store i32 %8, ptr %4, align 4
  %9 = load i32, ptr %4, align 4
  call void @llvm.lifetime.end.p0(i64 4, ptr %4) #9
  call void @llvm.lifetime.end.p0(i64 4, ptr %3) #9
  ret i32 %9
}

; Function Attrs: inlinehint nounwind uwtable
define internal i32 @MXOffsetToFlagsOffset(i32 noundef %0) #4 {
  %2 = alloca i32, align 4
  %3 = alloca i32, align 4
  %4 = alloca i32, align 4
  %5 = alloca i32, align 4
  store i32 %0, ptr %2, align 4
  call void @llvm.lifetime.start.p0(i64 4, ptr %3) #9
  %6 = load i32, ptr %2, align 4
  %7 = udiv i32 %6, 4
  store i32 %7, ptr %3, align 4
  call void @llvm.lifetime.start.p0(i64 4, ptr %4) #9
  %8 = load i32, ptr %3, align 4
  %9 = zext i32 %8 to i64
  %10 = urem i64 %9, 409
  %11 = trunc i64 %10 to i32
  store i32 %11, ptr %4, align 4
  call void @llvm.lifetime.start.p0(i64 4, ptr %5) #9
  %12 = load i32, ptr %4, align 4
  %13 = sext i32 %12 to i64
  %14 = mul i64 %13, 20
  %15 = trunc i64 %14 to i32
  store i32 %15, ptr %5, align 4
  %16 = load i32, ptr %5, align 4
  call void @llvm.lifetime.end.p0(i64 4, ptr %5) #9
  call void @llvm.lifetime.end.p0(i64 4, ptr %4) #9
  call void @llvm.lifetime.end.p0(i64 4, ptr %3) #9
  ret i32 %16
}

; Function Attrs: inlinehint nounwind uwtable
define internal i32 @MXOffsetToMemberOffset(i32 noundef %0) #4 {
  %2 = alloca i32, align 4
  %3 = alloca i32, align 4
  store i32 %0, ptr %2, align 4
  call void @llvm.lifetime.start.p0(i64 4, ptr %3) #9
  %4 = load i32, ptr %2, align 4
  %5 = urem i32 %4, 4
  store i32 %5, ptr %3, align 4
  %6 = load i32, ptr %2, align 4
  %7 = call i32 @MXOffsetToFlagsOffset(i32 noundef %6)
  %8 = add i32 %7, 4
  %9 = sext i32 %8 to i64
  %10 = load i32, ptr %3, align 4
  %11 = sext i32 %10 to i64
  %12 = mul i64 %11, 4
  %13 = add i64 %9, %12
  %14 = trunc i64 %13 to i32
  call void @llvm.lifetime.end.p0(i64 4, ptr %3) #9
  ret i32 %14
}

; Function Attrs: inlinehint nounwind uwtable
define internal i64 @MXOffsetToMemberPage(i32 noundef %0) #4 {
  %2 = alloca i32, align 4
  store i32 %0, ptr %2, align 4
  %3 = load i32, ptr %2, align 4
  %4 = zext i32 %3 to i64
  %5 = udiv i64 %4, 1636
  ret i64 %5
}

; Function Attrs: inlinehint nounwind uwtable
define internal ptr @SimpleLruGetBankLock(ptr noundef %0, i64 noundef %1) #4 {
  %3 = alloca ptr, align 8
  %4 = alloca i64, align 8
  %5 = alloca i32, align 4
  store ptr %0, ptr %3, align 8
  store i64 %1, ptr %4, align 8
  call void @llvm.lifetime.start.p0(i64 4, ptr %5) #9
  %6 = load i64, ptr %4, align 8
  %7 = load ptr, ptr %3, align 8
  %8 = getelementptr inbounds nuw %struct.SlruCtlData, ptr %7, i32 0, i32 1
  %9 = load i16, ptr %8, align 8
  %10 = zext i16 %9 to i64
  %11 = srem i64 %6, %10
  %12 = trunc i64 %11 to i32
  store i32 %12, ptr %5, align 4
  %13 = load ptr, ptr %3, align 8
  %14 = getelementptr inbounds nuw %struct.SlruCtlData, ptr %13, i32 0, i32 0
  %15 = load ptr, ptr %14, align 8
  %16 = getelementptr inbounds nuw %struct.SlruSharedData, ptr %15, i32 0, i32 7
  %17 = load ptr, ptr %16, align 8
  %18 = load i32, ptr %5, align 4
  %19 = sext i32 %18 to i64
  %20 = getelementptr inbounds %union.LWLockPadded, ptr %17, i64 %19
  call void @llvm.lifetime.end.p0(i64 4, ptr %5) #9
  ret ptr %20
}

; Function Attrs: inlinehint nounwind uwtable
define internal i32 @MultiXactIdToOffsetEntry(i32 noundef %0) #4 {
  %2 = alloca i32, align 4
  store i32 %0, ptr %2, align 4
  %3 = load i32, ptr %2, align 4
  %4 = zext i32 %3 to i64
  %5 = urem i64 %4, 2048
  %6 = trunc i64 %5 to i32
  ret i32 %6
}

; Function Attrs: inlinehint nounwind uwtable
define internal i64 @MultiXactIdToOffsetPage(i32 noundef %0) #4 {
  %2 = alloca i32, align 4
  store i32 %0, ptr %2, align 4
  %3 = load i32, ptr %2, align 4
  %4 = zext i32 %3 to i64
  %5 = udiv i64 %4, 2048
  ret i64 %5
}

; Function Attrs: nounwind uwtable
define internal void @RecordNewMultiXact(i32 noundef %0, i32 noundef %1, i32 noundef %2, ptr noundef %3) #0 {
  %5 = alloca i32, align 4
  %6 = alloca i32, align 4
  %7 = alloca i32, align 4
  %8 = alloca ptr, align 8
  %9 = alloca i64, align 8
  %10 = alloca i64, align 8
  %11 = alloca i32, align 4
  %12 = alloca i32, align 4
  %13 = alloca ptr, align 8
  %14 = alloca i32, align 4
  %15 = alloca ptr, align 8
  %16 = alloca ptr, align 8
  %17 = alloca ptr, align 8
  %18 = alloca ptr, align 8
  %19 = alloca i32, align 4
  %20 = alloca i32, align 4
  %21 = alloca i32, align 4
  %22 = alloca i32, align 4
  store i32 %0, ptr %5, align 4
  store i32 %1, ptr %6, align 4
  store i32 %2, ptr %7, align 4
  store ptr %3, ptr %8, align 8
  call void @llvm.lifetime.start.p0(i64 8, ptr %9) #9
  call void @llvm.lifetime.start.p0(i64 8, ptr %10) #9
  call void @llvm.lifetime.start.p0(i64 4, ptr %11) #9
  call void @llvm.lifetime.start.p0(i64 4, ptr %12) #9
  call void @llvm.lifetime.start.p0(i64 8, ptr %13) #9
  call void @llvm.lifetime.start.p0(i64 4, ptr %14) #9
  call void @llvm.lifetime.start.p0(i64 8, ptr %15) #9
  call void @llvm.lifetime.start.p0(i64 8, ptr %16) #9
  store ptr null, ptr %16, align 8
  %23 = load i32, ptr %5, align 4
  %24 = call i64 @MultiXactIdToOffsetPage(i32 noundef %23)
  store i64 %24, ptr %9, align 8
  %25 = load i32, ptr %5, align 4
  %26 = call i32 @MultiXactIdToOffsetEntry(i32 noundef %25)
  store i32 %26, ptr %11, align 4
  %27 = load i64, ptr %9, align 8
  %28 = call ptr @SimpleLruGetBankLock(ptr noundef @MultiXactOffsetCtlData, i64 noundef %27)
  store ptr %28, ptr %15, align 8
  %29 = load ptr, ptr %15, align 8
  %30 = call zeroext i1 @LWLockAcquire(ptr noundef %29, i32 noundef 0)
  %31 = load i64, ptr %9, align 8
  %32 = load i32, ptr %5, align 4
  %33 = call i32 @SimpleLruReadPage(ptr noundef @MultiXactOffsetCtlData, i64 noundef %31, i1 noundef zeroext true, i32 noundef %32)
  store i32 %33, ptr %12, align 4
  %34 = load ptr, ptr @MultiXactOffsetCtlData, align 8
  %35 = getelementptr inbounds nuw %struct.SlruSharedData, ptr %34, i32 0, i32 1
  %36 = load ptr, ptr %35, align 8
  %37 = load i32, ptr %12, align 4
  %38 = sext i32 %37 to i64
  %39 = getelementptr inbounds ptr, ptr %36, i64 %38
  %40 = load ptr, ptr %39, align 8
  store ptr %40, ptr %13, align 8
  %41 = load i32, ptr %11, align 4
  %42 = load ptr, ptr %13, align 8
  %43 = sext i32 %41 to i64
  %44 = getelementptr inbounds i32, ptr %42, i64 %43
  store ptr %44, ptr %13, align 8
  %45 = load i32, ptr %6, align 4
  %46 = load ptr, ptr %13, align 8
  store i32 %45, ptr %46, align 4
  %47 = load ptr, ptr @MultiXactOffsetCtlData, align 8
  %48 = getelementptr inbounds nuw %struct.SlruSharedData, ptr %47, i32 0, i32 3
  %49 = load ptr, ptr %48, align 8
  %50 = load i32, ptr %12, align 4
  %51 = sext i32 %50 to i64
  %52 = getelementptr inbounds i8, ptr %49, i64 %51
  store i8 1, ptr %52, align 1
  %53 = load ptr, ptr %15, align 8
  call void @LWLockRelease(ptr noundef %53)
  %54 = load ptr, ptr @MultiXactState, align 8
  %55 = getelementptr inbounds nuw %struct.MultiXactStateData, ptr %54, i32 0, i32 12
  call void @ConditionVariableBroadcast(ptr noundef %55)
  store i64 -1, ptr %10, align 8
  store i32 0, ptr %14, align 4
  br label %56

56:                                               ; preds = %145, %4
  %57 = load i32, ptr %14, align 4
  %58 = load i32, ptr %7, align 4
  %59 = icmp slt i32 %57, %58
  br i1 %59, label %60, label %150

60:                                               ; preds = %56
  call void @llvm.lifetime.start.p0(i64 8, ptr %17) #9
  call void @llvm.lifetime.start.p0(i64 8, ptr %18) #9
  call void @llvm.lifetime.start.p0(i64 4, ptr %19) #9
  call void @llvm.lifetime.start.p0(i64 4, ptr %20) #9
  call void @llvm.lifetime.start.p0(i64 4, ptr %21) #9
  call void @llvm.lifetime.start.p0(i64 4, ptr %22) #9
  %61 = load i32, ptr %6, align 4
  %62 = call i64 @MXOffsetToMemberPage(i32 noundef %61)
  store i64 %62, ptr %9, align 8
  %63 = load i32, ptr %6, align 4
  %64 = call i32 @MXOffsetToMemberOffset(i32 noundef %63)
  store i32 %64, ptr %22, align 4
  %65 = load i32, ptr %6, align 4
  %66 = call i32 @MXOffsetToFlagsOffset(i32 noundef %65)
  store i32 %66, ptr %21, align 4
  %67 = load i32, ptr %6, align 4
  %68 = call i32 @MXOffsetToFlagsBitShift(i32 noundef %67)
  store i32 %68, ptr %20, align 4
  %69 = load i64, ptr %9, align 8
  %70 = load i64, ptr %10, align 8
  %71 = icmp ne i64 %69, %70
  br i1 %71, label %72, label %92

72:                                               ; preds = %60
  %73 = load i64, ptr %9, align 8
  %74 = call ptr @SimpleLruGetBankLock(ptr noundef @MultiXactMemberCtlData, i64 noundef %73)
  store ptr %74, ptr %15, align 8
  %75 = load ptr, ptr %15, align 8
  %76 = load ptr, ptr %16, align 8
  %77 = icmp ne ptr %75, %76
  br i1 %77, label %78, label %87

78:                                               ; preds = %72
  %79 = load ptr, ptr %16, align 8
  %80 = icmp ne ptr %79, null
  br i1 %80, label %81, label %83

81:                                               ; preds = %78
  %82 = load ptr, ptr %16, align 8
  call void @LWLockRelease(ptr noundef %82)
  br label %83

83:                                               ; preds = %81, %78
  %84 = load ptr, ptr %15, align 8
  %85 = call zeroext i1 @LWLockAcquire(ptr noundef %84, i32 noundef 0)
  %86 = load ptr, ptr %15, align 8
  store ptr %86, ptr %16, align 8
  br label %87

87:                                               ; preds = %83, %72
  %88 = load i64, ptr %9, align 8
  %89 = load i32, ptr %5, align 4
  %90 = call i32 @SimpleLruReadPage(ptr noundef @MultiXactMemberCtlData, i64 noundef %88, i1 noundef zeroext true, i32 noundef %89)
  store i32 %90, ptr %12, align 4
  %91 = load i64, ptr %9, align 8
  store i64 %91, ptr %10, align 8
  br label %92

92:                                               ; preds = %87, %60
  %93 = load ptr, ptr @MultiXactMemberCtlData, align 8
  %94 = getelementptr inbounds nuw %struct.SlruSharedData, ptr %93, i32 0, i32 1
  %95 = load ptr, ptr %94, align 8
  %96 = load i32, ptr %12, align 4
  %97 = sext i32 %96 to i64
  %98 = getelementptr inbounds ptr, ptr %95, i64 %97
  %99 = load ptr, ptr %98, align 8
  %100 = load i32, ptr %22, align 4
  %101 = sext i32 %100 to i64
  %102 = getelementptr inbounds i8, ptr %99, i64 %101
  store ptr %102, ptr %17, align 8
  %103 = load ptr, ptr %8, align 8
  %104 = load i32, ptr %14, align 4
  %105 = sext i32 %104 to i64
  %106 = getelementptr inbounds %struct.MultiXactMember, ptr %103, i64 %105
  %107 = getelementptr inbounds nuw %struct.MultiXactMember, ptr %106, i32 0, i32 0
  %108 = load i32, ptr %107, align 4
  %109 = load ptr, ptr %17, align 8
  store i32 %108, ptr %109, align 4
  %110 = load ptr, ptr @MultiXactMemberCtlData, align 8
  %111 = getelementptr inbounds nuw %struct.SlruSharedData, ptr %110, i32 0, i32 1
  %112 = load ptr, ptr %111, align 8
  %113 = load i32, ptr %12, align 4
  %114 = sext i32 %113 to i64
  %115 = getelementptr inbounds ptr, ptr %112, i64 %114
  %116 = load ptr, ptr %115, align 8
  %117 = load i32, ptr %21, align 4
  %118 = sext i32 %117 to i64
  %119 = getelementptr inbounds i8, ptr %116, i64 %118
  store ptr %119, ptr %18, align 8
  %120 = load ptr, ptr %18, align 8
  %121 = load i32, ptr %120, align 4
  store i32 %121, ptr %19, align 4
  %122 = load i32, ptr %20, align 4
  %123 = shl i32 255, %122
  %124 = xor i32 %123, -1
  %125 = load i32, ptr %19, align 4
  %126 = and i32 %125, %124
  store i32 %126, ptr %19, align 4
  %127 = load ptr, ptr %8, align 8
  %128 = load i32, ptr %14, align 4
  %129 = sext i32 %128 to i64
  %130 = getelementptr inbounds %struct.MultiXactMember, ptr %127, i64 %129
  %131 = getelementptr inbounds nuw %struct.MultiXactMember, ptr %130, i32 0, i32 1
  %132 = load i32, ptr %131, align 4
  %133 = load i32, ptr %20, align 4
  %134 = shl i32 %132, %133
  %135 = load i32, ptr %19, align 4
  %136 = or i32 %135, %134
  store i32 %136, ptr %19, align 4
  %137 = load i32, ptr %19, align 4
  %138 = load ptr, ptr %18, align 8
  store i32 %137, ptr %138, align 4
  %139 = load ptr, ptr @MultiXactMemberCtlData, align 8
  %140 = getelementptr inbounds nuw %struct.SlruSharedData, ptr %139, i32 0, i32 3
  %141 = load ptr, ptr %140, align 8
  %142 = load i32, ptr %12, align 4
  %143 = sext i32 %142 to i64
  %144 = getelementptr inbounds i8, ptr %141, i64 %143
  store i8 1, ptr %144, align 1
  call void @llvm.lifetime.end.p0(i64 4, ptr %22) #9
  call void @llvm.lifetime.end.p0(i64 4, ptr %21) #9
  call void @llvm.lifetime.end.p0(i64 4, ptr %20) #9
  call void @llvm.lifetime.end.p0(i64 4, ptr %19) #9
  call void @llvm.lifetime.end.p0(i64 8, ptr %18) #9
  call void @llvm.lifetime.end.p0(i64 8, ptr %17) #9
  br label %145

145:                                              ; preds = %92
  %146 = load i32, ptr %14, align 4
  %147 = add i32 %146, 1
  store i32 %147, ptr %14, align 4
  %148 = load i32, ptr %6, align 4
  %149 = add i32 %148, 1
  store i32 %149, ptr %6, align 4
  br label %56, !llvm.loop !15

150:                                              ; preds = %56
  %151 = load ptr, ptr %16, align 8
  %152 = icmp ne ptr %151, null
  br i1 %152, label %153, label %155

153:                                              ; preds = %150
  %154 = load ptr, ptr %16, align 8
  call void @LWLockRelease(ptr noundef %154)
  br label %155

155:                                              ; preds = %153, %150
  call void @llvm.lifetime.end.p0(i64 8, ptr %16) #9
  call void @llvm.lifetime.end.p0(i64 8, ptr %15) #9
  call void @llvm.lifetime.end.p0(i64 4, ptr %14) #9
  call void @llvm.lifetime.end.p0(i64 8, ptr %13) #9
  call void @llvm.lifetime.end.p0(i64 4, ptr %12) #9
  call void @llvm.lifetime.end.p0(i64 4, ptr %11) #9
  call void @llvm.lifetime.end.p0(i64 8, ptr %10) #9
  call void @llvm.lifetime.end.p0(i64 8, ptr %9) #9
  ret void
}