; Function Attrs: nounwind uwtable
define internal fastcc void @RecordNewMultiXact(i32 noundef %0, i32 noundef %1, i32 noundef %2, ptr noundef readonly captures(none) %3) unnamed_addr #0 {
  %5 = lshr i32 %0, 11
  %6 = zext nneg i32 %5 to i64
  %7 = and i32 %0, 2047
  %MultiXactOffsetCtlData.val = load ptr, ptr @MultiXactOffsetCtlData, align 8
  %MultiXactOffsetCtlData.val62 = load i16, ptr getelementptr inbounds nuw (i8, ptr @MultiXactOffsetCtlData, i64 8), align 8
  %8 = getelementptr i8, ptr %MultiXactOffsetCtlData.val, i64 56
  %MultiXactOffsetCtlData.val.val = load ptr, ptr %8, align 8
  %.rhs.trunc = zext i16 %MultiXactOffsetCtlData.val62 to i32
  %9 = urem i32 %5, %.rhs.trunc
  %10 = shl nuw nsw i32 %9, 7
  %11 = zext nneg i32 %10 to i64
  %12 = getelementptr inbounds nuw i8, ptr %MultiXactOffsetCtlData.val.val, i64 %11
  %13 = tail call zeroext i1 @LWLockAcquire(ptr noundef %12, i32 noundef 0) #13
  %14 = tail call i32 @SimpleLruReadPage(ptr noundef nonnull @MultiXactOffsetCtlData, i64 noundef %6, i1 noundef zeroext true, i32 noundef %0) #13
  %15 = load ptr, ptr @MultiXactOffsetCtlData, align 8
  %16 = getelementptr inbounds nuw i8, ptr %15, i64 8
  %17 = load ptr, ptr %16, align 8
  %18 = sext i32 %14 to i64
  %19 = getelementptr inbounds ptr, ptr %17, i64 %18
  %20 = load ptr, ptr %19, align 8
  %21 = zext nneg i32 %7 to i64
  %22 = getelementptr inbounds nuw i32, ptr %20, i64 %21
  store i32 %1, ptr %22, align 4
  %23 = load ptr, ptr @MultiXactOffsetCtlData, align 8
  %24 = getelementptr inbounds nuw i8, ptr %23, i64 24
  %25 = load ptr, ptr %24, align 8
  %26 = getelementptr inbounds i8, ptr %25, i64 %18
  store i8 1, ptr %26, align 1
  tail call void @LWLockRelease(ptr noundef %12) #13
  %27 = load ptr, ptr @MultiXactState, align 8
  %28 = getelementptr inbounds nuw i8, ptr %27, i64 48
  tail call void @ConditionVariableBroadcast(ptr noundef nonnull %28) #13
  %29 = icmp sgt i32 %2, 0
  br i1 %29, label %.lr.ph.preheader, label %._crit_edge.thread

.lr.ph.preheader:                                 ; preds = %4
  %wide.trip.count = zext nneg i32 %2 to i64
  br label %.lr.ph

.lr.ph:                                           ; preds = %.lr.ph.preheader, %51
  %indvars.iv = phi i64 [ 0, %.lr.ph.preheader ], [ %indvars.iv.next, %51 ]
  %.072 = phi i32 [ %1, %.lr.ph.preheader ], [ %81, %51 ]
  %.05171 = phi i64 [ -1, %.lr.ph.preheader ], [ %.1, %51 ]
  %.05270 = phi i32 [ %14, %.lr.ph.preheader ], [ %.153, %51 ]
  %.05568 = phi ptr [ null, %.lr.ph.preheader ], [ %.156, %51 ]
  %30 = udiv i32 %.072, 1636
  %31 = zext nneg i32 %30 to i64
  %32 = lshr i32 %.072, 2
  %33 = urem i32 %32, 409
  %narrow.i.i = mul nuw nsw i32 %33, 20
  %34 = shl i32 %.072, 2
  %35 = and i32 %34, 12
  %36 = add nuw nsw i32 %35, 4
  %narrow.i = add nuw nsw i32 %36, %narrow.i.i
  %37 = shl i32 %.072, 3
  %38 = and i32 %37, 24
  %.not59 = icmp eq i64 %.05171, %31
  br i1 %.not59, label %51, label %39

39:                                               ; preds = %.lr.ph
  %MultiXactMemberCtlData.val = load ptr, ptr @MultiXactMemberCtlData, align 8
  %MultiXactMemberCtlData.val63 = load i16, ptr getelementptr inbounds nuw (i8, ptr @MultiXactMemberCtlData, i64 8), align 8
  %40 = getelementptr i8, ptr %MultiXactMemberCtlData.val, i64 56
  %MultiXactMemberCtlData.val.val = load ptr, ptr %40, align 8
  %.rhs.trunc66 = zext i16 %MultiXactMemberCtlData.val63 to i32
  %41 = urem i32 %30, %.rhs.trunc66
  %42 = shl nuw nsw i32 %41, 7
  %43 = zext nneg i32 %42 to i64
  %44 = getelementptr inbounds nuw i8, ptr %MultiXactMemberCtlData.val.val, i64 %43
  %.not60 = icmp eq ptr %44, %.05568
  br i1 %.not60, label %49, label %45

45:                                               ; preds = %39
  %.not61 = icmp eq ptr %.05568, null
  br i1 %.not61, label %47, label %46

46:                                               ; preds = %45
  tail call void @LWLockRelease(ptr noundef nonnull %.05568) #13
  br label %47

47:                                               ; preds = %46, %45
  %48 = tail call zeroext i1 @LWLockAcquire(ptr noundef %44, i32 noundef 0) #13
  br label %49

49:                                               ; preds = %47, %39
  %.2 = phi ptr [ %44, %47 ], [ %.05568, %39 ]
  %50 = tail call i32 @SimpleLruReadPage(ptr noundef nonnull @MultiXactMemberCtlData, i64 noundef %31, i1 noundef zeroext true, i32 noundef %0) #13
  br label %51

51:                                               ; preds = %49, %.lr.ph
  %.156 = phi ptr [ %.2, %49 ], [ %.05568, %.lr.ph ]
  %.153 = phi i32 [ %50, %49 ], [ %.05270, %.lr.ph ]
  %.1 = phi i64 [ %31, %49 ], [ %.05171, %.lr.ph ]
  %52 = load ptr, ptr @MultiXactMemberCtlData, align 8
  %53 = getelementptr inbounds nuw i8, ptr %52, i64 8
  %54 = load ptr, ptr %53, align 8
  %55 = sext i32 %.153 to i64
  %56 = getelementptr inbounds ptr, ptr %54, i64 %55
  %57 = load ptr, ptr %56, align 8
  %58 = zext nneg i32 %narrow.i to i64
  %59 = getelementptr inbounds nuw i8, ptr %57, i64 %58
  %60 = getelementptr inbounds nuw %struct.MultiXactMember, ptr %3, i64 %indvars.iv
  %61 = load i32, ptr %60, align 4
  store i32 %61, ptr %59, align 4
  %62 = load ptr, ptr @MultiXactMemberCtlData, align 8
  %63 = getelementptr inbounds nuw i8, ptr %62, i64 8
  %64 = load ptr, ptr %63, align 8
  %65 = getelementptr inbounds ptr, ptr %64, i64 %55
  %66 = load ptr, ptr %65, align 8
  %67 = zext nneg i32 %narrow.i.i to i64
  %68 = getelementptr inbounds nuw i8, ptr %66, i64 %67
  %69 = load i32, ptr %68, align 4
  %70 = shl nuw i32 255, %38
  %71 = xor i32 %70, -1
  %72 = and i32 %69, %71
  %73 = getelementptr inbounds nuw i8, ptr %60, i64 4
  %74 = load i32, ptr %73, align 4
  %75 = shl i32 %74, %38
  %76 = or i32 %75, %72
  store i32 %76, ptr %68, align 4
  %77 = load ptr, ptr @MultiXactMemberCtlData, align 8
  %78 = getelementptr inbounds nuw i8, ptr %77, i64 24
  %79 = load ptr, ptr %78, align 8
  %80 = getelementptr inbounds i8, ptr %79, i64 %55
  store i8 1, ptr %80, align 1
  %indvars.iv.next = add nuw nsw i64 %indvars.iv, 1
  %81 = add i32 %.072, 1
  %exitcond.not = icmp eq i64 %indvars.iv.next, %wide.trip.count
  br i1 %exitcond.not, label %._crit_edge, label %.lr.ph, !llvm.loop !19

._crit_edge:                                      ; preds = %51
  %.not = icmp eq ptr %.156, null
  br i1 %.not, label %._crit_edge.thread, label %82

82:                                               ; preds = %._crit_edge
  tail call void @LWLockRelease(ptr noundef nonnull %.156) #13
  br label %._crit_edge.thread

._crit_edge.thread:                               ; preds = %4, %82, %._crit_edge
  ret void
}